; Function Attrs: nounwind uwtable
define ptr @l_Lean_Widget_TaggedText_stripTags___rarg(ptr noundef %0) #1 {
  tail call void @lean_inc_heartbeat() #5
  %2 = tail call noalias ptr @mi_malloc_small(i64 noundef 24) #5
  %3 = icmp eq ptr %2, null
  br i1 %3, label %4, label %lean_alloc_ctor.exit

4:                                                ; preds = %1
  tail call void @lean_internal_panic_out_of_memory() #6
  unreachable

lean_alloc_ctor.exit:                             ; preds = %1
  %5 = getelementptr inbounds nuw i8, ptr %2, i64 4
  store i32 1, ptr %2, align 4, !tbaa !9
  store i32 16908312, ptr %5, align 4
  %6 = getelementptr inbounds nuw i8, ptr %2, i64 8
  store ptr %0, ptr %6, align 8, !tbaa !4
  %7 = getelementptr inbounds nuw i8, ptr %2, i64 16
  store ptr inttoptr (i64 1 to ptr), ptr %7, align 8, !tbaa !4
  %8 = tail call ptr @lean_array_mk(ptr noundef nonnull %2) #5
  %9 = load ptr, ptr @l_Lean_Widget_instInhabitedTaggedText___closed__1, align 8, !tbaa !4
  %10 = tail call ptr @l_Lean_Widget_TaggedText_stripTags_go___rarg(ptr noundef %9, ptr noundef %8)
  ret ptr %10
}